target datalayout = "e-m:e-p270:32:32-p271:32:32-p272:64:64-i64:64-i128:128-f80:128-n8:16:32:64-S128"
target triple = "x86_64-pc-linux-gnu"

%"struct.cv::ppf_match_3d::HSHTBL_i" = type { i64, ptr, ptr }
%"struct.cv::ppf_match_3d::hashnode_i" = type { i32, ptr, ptr }

; Function Attrs: mustprogress uwtable
define hidden noundef i32 @_ZN2cv12ppf_match_3d15hashtableRemoveEPNS0_8HSHTBL_iEj(ptr noundef %0, i32 noundef %1) #5 {
  %3 = alloca i32, align 4
  %4 = alloca ptr, align 8
  %5 = alloca i32, align 4
  %6 = alloca ptr, align 8
  %7 = alloca ptr, align 8
  %8 = alloca i64, align 8
  %9 = alloca i32, align 4
  store ptr %0, ptr %4, align 8, !tbaa !11
  store i32 %1, ptr %5, align 4, !tbaa !3
  call void @llvm.lifetime.start.p0(i64 8, ptr %6) #3
  call void @llvm.lifetime.start.p0(i64 8, ptr %7) #3
  store ptr null, ptr %7, align 8, !tbaa !19
  call void @llvm.lifetime.start.p0(i64 8, ptr %8) #3
  %10 = load ptr, ptr %4, align 8, !tbaa !11
  %11 = getelementptr inbounds nuw %"struct.cv::ppf_match_3d::HSHTBL_i", ptr %10, i32 0, i32 2
  %12 = load ptr, ptr %11, align 8, !tbaa !18
  %13 = load i32, ptr %5, align 4, !tbaa !3
  %14 = call noundef i64 %12(i32 noundef %13)
  %15 = load ptr, ptr %4, align 8, !tbaa !11
  %16 = getelementptr inbounds nuw %"struct.cv::ppf_match_3d::HSHTBL_i", ptr %15, i32 0, i32 0
  %17 = load i64, ptr %16, align 8, !tbaa !17
  %18 = urem i64 %14, %17
  store i64 %18, ptr %8, align 8, !tbaa !7
  %19 = load ptr, ptr %4, align 8, !tbaa !11
  %20 = getelementptr inbounds nuw %"struct.cv::ppf_match_3d::HSHTBL_i", ptr %19, i32 0, i32 1
  %21 = load ptr, ptr %20, align 8, !tbaa !13
  %22 = load i64, ptr %8, align 8, !tbaa !7
  %23 = getelementptr inbounds nuw ptr, ptr %21, i64 %22
  %24 = load ptr, ptr %23, align 8, !tbaa !19
  store ptr %24, ptr %6, align 8, !tbaa !19
  br label %25

25:                                               ; preds = %54, %2
  %26 = load ptr, ptr %6, align 8, !tbaa !19
  %27 = icmp ne ptr %26, null
  br i1 %27, label %28, label %59

28:                                               ; preds = %25
  %29 = load ptr, ptr %6, align 8, !tbaa !19
  %30 = getelementptr inbounds nuw %"struct.cv::ppf_match_3d::hashnode_i", ptr %29, i32 0, i32 0
  %31 = load i32, ptr %30, align 8, !tbaa !26
  %32 = load i32, ptr %5, align 4, !tbaa !3
  %33 = icmp eq i32 %31, %32
  br i1 %33, label %34, label %54

34:                                               ; preds = %28
  %35 = load ptr, ptr %7, align 8, !tbaa !19
  %36 = icmp ne ptr %35, null
  br i1 %36, label %37, label %43

37:                                               ; preds = %34
  %38 = load ptr, ptr %6, align 8, !tbaa !19
  %39 = getelementptr inbounds nuw %"struct.cv::ppf_match_3d::hashnode_i", ptr %38, i32 0, i32 2
  %40 = load ptr, ptr %39, align 8, !tbaa !21
  %41 = load ptr, ptr %7, align 8, !tbaa !19
  %42 = getelementptr inbounds nuw %"struct.cv::ppf_match_3d::hashnode_i", ptr %41, i32 0, i32 2
  store ptr %40, ptr %42, align 8, !tbaa !21
  br label %52

43:                                               ; preds = %34
  %44 = load ptr, ptr %6, align 8, !tbaa !19
  %45 = getelementptr inbounds nuw %"struct.cv::ppf_match_3d::hashnode_i", ptr %44, i32 0, i32 2
  %46 = load ptr, ptr %45, align 8, !tbaa !21
  %47 = load ptr, ptr %4, align 8, !tbaa !11
  %48 = getelementptr inbounds nuw %"struct.cv::ppf_match_3d::HSHTBL_i", ptr %47, i32 0, i32 1
  %49 = load ptr, ptr %48, align 8, !tbaa !13
  %50 = load i64, ptr %8, align 8, !tbaa !7
  %51 = getelementptr inbounds nuw ptr, ptr %49, i64 %50
  store ptr %46, ptr %51, align 8, !tbaa !19
  br label %52

52:                                               ; preds = %43, %37
  %53 = load ptr, ptr %6, align 8, !tbaa !19
  call void @free(ptr noundef %53) #3
  store i32 0, ptr %3, align 4
  store i32 1, ptr %9, align 4
  br label %60

54:                                               ; preds = %28
  %55 = load ptr, ptr %6, align 8, !tbaa !19
  store ptr %55, ptr %7, align 8, !tbaa !19
  %56 = load ptr, ptr %6, align 8, !tbaa !19
  %57 = getelementptr inbounds nuw %"struct.cv::ppf_match_3d::hashnode_i", ptr %56, i32 0, i32 2
  %58 = load ptr, ptr %57, align 8, !tbaa !21
  store ptr %58, ptr %6, align 8, !tbaa !19
  br label %25, !llvm.loop !30

59:                                               ; preds = %25
  store i32 -1, ptr %3, align 4
  store i32 1, ptr %9, align 4
  br label %60

60:                                               ; preds = %59, %52
  call void @llvm.lifetime.end.p0(i64 8, ptr %8) #3
  call void @llvm.lifetime.end.p0(i64 8, ptr %7) #3
  call void @llvm.lifetime.end.p0(i64 8, ptr %6) #3
  %61 = load i32, ptr %3, align 4
  ret i32 %61
}

; Function Attrs: mustprogress uwtable
define hidden noundef i32 @_ZN2cv12ppf_match_3d15hashtableInsertEPNS0_8HSHTBL_iEjPv(ptr noundef %0, i32 noundef %1, ptr noundef %2) #5 {
  %4 = alloca i32, align 4
  %5 = alloca ptr, align 8
  %6 = alloca i32, align 4
  %7 = alloca ptr, align 8
  %8 = alloca ptr, align 8
  %9 = alloca i64, align 8
  %10 = alloca i32, align 4
  store ptr %0, ptr %5, align 8, !tbaa !11
  store i32 %1, ptr %6, align 4, !tbaa !3
  store ptr %2, ptr %7, align 8, !tbaa !9
  call void @llvm.lifetime.start.p0(i64 8, ptr %8) #3
  call void @llvm.lifetime.start.p0(i64 8, ptr %9) #3
  %11 = load ptr, ptr %5, align 8, !tbaa !11
  %12 = getelementptr inbounds nuw %"struct.cv::ppf_match_3d::HSHTBL_i", ptr %11, i32 0, i32 2
  %13 = load ptr, ptr %12, align 8, !tbaa !18
  %14 = load i32, ptr %6, align 4, !tbaa !3
  %15 = call noundef i64 %13(i32 noundef %14)
  %16 = load ptr, ptr %5, align 8, !tbaa !11
  %17 = getelementptr inbounds nuw %"struct.cv::ppf_match_3d::HSHTBL_i", ptr %16, i32 0, i32 0
  %18 = load i64, ptr %17, align 8, !tbaa !17
  %19 = urem i64 %15, %18
  store i64 %19, ptr %9, align 8, !tbaa !7
  %20 = load ptr, ptr %5, align 8, !tbaa !11
  %21 = getelementptr inbounds nuw %"struct.cv::ppf_match_3d::HSHTBL_i", ptr %20, i32 0, i32 1
  %22 = load ptr, ptr %21, align 8, !tbaa !13
  %23 = load i64, ptr %9, align 8, !tbaa !7
  %24 = getelementptr inbounds nuw ptr, ptr %22, i64 %23
  %25 = load ptr, ptr %24, align 8, !tbaa !19
  store ptr %25, ptr %8, align 8, !tbaa !19
  br label %26

26:                                               ; preds = %39, %3
  %27 = load ptr, ptr %8, align 8, !tbaa !19
  %28 = icmp ne ptr %27, null
  br i1 %28, label %29, label %43

29:                                               ; preds = %26
  %30 = load ptr, ptr %8, align 8, !tbaa !19
  %31 = getelementptr inbounds nuw %"struct.cv::ppf_match_3d::hashnode_i", ptr %30, i32 0, i32 0
  %32 = load i32, ptr %31, align 8, !tbaa !26
  %33 = load i32, ptr %6, align 4, !tbaa !3
  %34 = icmp ne i32 %32, %33
  br i1 %34, label %35, label %39

35:                                               ; preds = %29
  %36 = load ptr, ptr %7, align 8, !tbaa !9
  %37 = load ptr, ptr %8, align 8, !tbaa !19
  %38 = getelementptr inbounds nuw %"struct.cv::ppf_match_3d::hashnode_i", ptr %37, i32 0, i32 1
  store ptr %36, ptr %38, align 8, !tbaa !27
  store i32 0, ptr %4, align 4
  store i32 1, ptr %10, align 4
  br label %69

39:                                               ; preds = %29
  %40 = load ptr, ptr %8, align 8, !tbaa !19
  %41 = getelementptr inbounds nuw %"struct.cv::ppf_match_3d::hashnode_i", ptr %40, i32 0, i32 2
  %42 = load ptr, ptr %41, align 8, !tbaa !21
  store ptr %42, ptr %8, align 8, !tbaa !19
  br label %26, !llvm.loop !28

43:                                               ; preds = %26
  %44 = call noalias ptr @malloc(i64 noundef 24) #12
  store ptr %44, ptr %8, align 8, !tbaa !19
  %45 = load ptr, ptr %8, align 8, !tbaa !19
  %46 = icmp ne ptr %45, null
  br i1 %46, label %48, label %47

47:                                               ; preds = %43
  store i32 -1, ptr %4, align 4
  store i32 1, ptr %10, align 4
  br label %69

48:                                               ; preds = %43
  %49 = load i32, ptr %6, align 4, !tbaa !3
  %50 = load ptr, ptr %8, align 8, !tbaa !19
  %51 = getelementptr inbounds nuw %"struct.cv::ppf_match_3d::hashnode_i", ptr %50, i32 0, i32 0
  store i32 %49, ptr %51, align 8, !tbaa !26
  %52 = load ptr, ptr %7, align 8, !tbaa !9
  %53 = load ptr, ptr %8, align 8, !tbaa !19
  %54 = getelementptr inbounds nuw %"struct.cv::ppf_match_3d::hashnode_i", ptr %53, i32 0, i32 1
  store ptr %52, ptr %54, align 8, !tbaa !27
  %55 = load ptr, ptr %5, align 8, !tbaa !11
  %56 = getelementptr inbounds nuw %"struct.cv::ppf_match_3d::HSHTBL_i", ptr %55, i32 0, i32 1
  %57 = load ptr, ptr %56, align 8, !tbaa !13
  %58 = load i64, ptr %9, align 8, !tbaa !7
  %59 = getelementptr inbounds nuw ptr, ptr %57, i64 %58
  %60 = load ptr, ptr %59, align 8, !tbaa !19
  %61 = load ptr, ptr %8, align 8, !tbaa !19
  %62 = getelementptr inbounds nuw %"struct.cv::ppf_match_3d::hashnode_i", ptr %61, i32 0, i32 2
  store ptr %60, ptr %62, align 8, !tbaa !21
  %63 = load ptr, ptr %8, align 8, !tbaa !19
  %64 = load ptr, ptr %5, align 8, !tbaa !11
  %65 = getelementptr inbounds nuw %"struct.cv::ppf_match_3d::HSHTBL_i", ptr %64, i32 0, i32 1
  %66 = load ptr, ptr %65, align 8, !tbaa !13
  %67 = load i64, ptr %9, align 8, !tbaa !7
  %68 = getelementptr inbounds nuw ptr, ptr %66, i64 %67
  store ptr %63, ptr %68, align 8, !tbaa !19
  store i32 0, ptr %4, align 4
  store i32 1, ptr %10, align 4
  br label %69

69:                                               ; preds = %48, %47, %35
  call void @llvm.lifetime.end.p0(i64 8, ptr %9) #3
  call void @llvm.lifetime.end.p0(i64 8, ptr %8) #3
  %70 = load i32, ptr %4, align 4
  ret i32 %70
}

; Function Attrs: mustprogress uwtable
define hidden noundef i32 @_ZN2cv12ppf_match_3d15hashtableResizeEPNS0_8HSHTBL_iEm(ptr noundef %0, i64 noundef %1) #5 {
  %3 = alloca i32, align 4
  %4 = alloca ptr, align 8
  %5 = alloca i64, align 8
  %6 = alloca %"struct.cv::ppf_match_3d::HSHTBL_i", align 8
  %7 = alloca i64, align 8
  %8 = alloca ptr, align 8
  %9 = alloca ptr, align 8
  %10 = alloca i32, align 4
  store ptr %0, ptr %4, align 8, !tbaa !11
  store i64 %1, ptr %5, align 8, !tbaa !7
  call void @llvm.lifetime.start.p0(i64 24, ptr %6) #3
  call void @llvm.lifetime.start.p0(i64 8, ptr %7) #3
  call void @llvm.lifetime.start.p0(i64 8, ptr %8) #3
  call void @llvm.lifetime.start.p0(i64 8, ptr %9) #3
  %11 = load i64, ptr %5, align 8, !tbaa !7
  %12 = getelementptr inbounds nuw %"struct.cv::ppf_match_3d::HSHTBL_i", ptr %6, i32 0, i32 0
  store i64 %11, ptr %12, align 8, !tbaa !17
  %13 = load ptr, ptr %4, align 8, !tbaa !11
  %14 = getelementptr inbounds nuw %"struct.cv::ppf_match_3d::HSHTBL_i", ptr %13, i32 0, i32 2
  %15 = load ptr, ptr %14, align 8, !tbaa !18
  %16 = getelementptr inbounds nuw %"struct.cv::ppf_match_3d::HSHTBL_i", ptr %6, i32 0, i32 2
  store ptr %15, ptr %16, align 8, !tbaa !18
  %17 = load i64, ptr %5, align 8, !tbaa !7
  %18 = call noalias ptr @calloc(i64 noundef %17, i64 noundef 8) #13
  %19 = getelementptr inbounds nuw %"struct.cv::ppf_match_3d::HSHTBL_i", ptr %6, i32 0, i32 1
  store ptr %18, ptr %19, align 8, !tbaa !13
  %20 = getelementptr inbounds nuw %"struct.cv::ppf_match_3d::HSHTBL_i", ptr %6, i32 0, i32 1
  %21 = load ptr, ptr %20, align 8, !tbaa !13
  %22 = icmp ne ptr %21, null
  br i1 %22, label %24, label %23

23:                                               ; preds = %2
  store i32 -1, ptr %3, align 4
  store i32 1, ptr %10, align 4
  br label %75

24:                                               ; preds = %2
  store i64 0, ptr %7, align 8, !tbaa !7
  br label %25

25:                                               ; preds = %60, %24
  %26 = load i64, ptr %7, align 8, !tbaa !7
  %27 = load ptr, ptr %4, align 8, !tbaa !11
  %28 = getelementptr inbounds nuw %"struct.cv::ppf_match_3d::HSHTBL_i", ptr %27, i32 0, i32 0
  %29 = load i64, ptr %28, align 8, !tbaa !17
  %30 = icmp ult i64 %26, %29
  br i1 %30, label %31, label %63

31:                                               ; preds = %25
  %32 = load ptr, ptr %4, align 8, !tbaa !11
  %33 = getelementptr inbounds nuw %"struct.cv::ppf_match_3d::HSHTBL_i", ptr %32, i32 0, i32 1
  %34 = load ptr, ptr %33, align 8, !tbaa !13
  %35 = load i64, ptr %7, align 8, !tbaa !7
  %36 = getelementptr inbounds nuw ptr, ptr %34, i64 %35
  %37 = load ptr, ptr %36, align 8, !tbaa !19
  store ptr %37, ptr %8, align 8, !tbaa !19
  br label %38

38:                                               ; preds = %57, %31
  %39 = load ptr, ptr %8, align 8, !tbaa !19
  %40 = icmp ne ptr %39, null
  br i1 %40, label %41, label %59

41:                                               ; preds = %38
  %42 = load ptr, ptr %8, align 8, !tbaa !19
  %43 = getelementptr inbounds nuw %"struct.cv::ppf_match_3d::hashnode_i", ptr %42, i32 0, i32 2
  %44 = load ptr, ptr %43, align 8, !tbaa !21
  store ptr %44, ptr %9, align 8, !tbaa !19
  %45 = load ptr, ptr %8, align 8, !tbaa !19
  %46 = getelementptr inbounds nuw %"struct.cv::ppf_match_3d::hashnode_i", ptr %45, i32 0, i32 0
  %47 = load i32, ptr %46, align 8, !tbaa !26
  %48 = load ptr, ptr %8, align 8, !tbaa !19
  %49 = getelementptr inbounds nuw %"struct.cv::ppf_match_3d::hashnode_i", ptr %48, i32 0, i32 1
  %50 = load ptr, ptr %49, align 8, !tbaa !27
  %51 = call noundef i32 @_ZN2cv12ppf_match_3d15hashtableInsertEPNS0_8HSHTBL_iEjPv(ptr noundef %6, i32 noundef %47, ptr noundef %50)
  %52 = load ptr, ptr %4, align 8, !tbaa !11
  %53 = load ptr, ptr %8, align 8, !tbaa !19
  %54 = getelementptr inbounds nuw %"struct.cv::ppf_match_3d::hashnode_i", ptr %53, i32 0, i32 0
  %55 = load i32, ptr %54, align 8, !tbaa !26
  %56 = call noundef i32 @_ZN2cv12ppf_match_3d15hashtableRemoveEPNS0_8HSHTBL_iEj(ptr noundef %52, i32 noundef %55)
  br label %57

57:                                               ; preds = %41
  %58 = load ptr, ptr %9, align 8, !tbaa !19
  store ptr %58, ptr %8, align 8, !tbaa !19
  br label %38, !llvm.loop !32

59:                                               ; preds = %38
  br label %60

60:                                               ; preds = %59
  %61 = load i64, ptr %7, align 8, !tbaa !7
  %62 = add i64 %61, 1
  store i64 %62, ptr %7, align 8, !tbaa !7
  br label %25, !llvm.loop !33

63:                                               ; preds = %25
  %64 = load ptr, ptr %4, align 8, !tbaa !11
  %65 = getelementptr inbounds nuw %"struct.cv::ppf_match_3d::HSHTBL_i", ptr %64, i32 0, i32 1
  %66 = load ptr, ptr %65, align 8, !tbaa !13
  call void @free(ptr noundef %66) #3
  %67 = getelementptr inbounds nuw %"struct.cv::ppf_match_3d::HSHTBL_i", ptr %6, i32 0, i32 0
  %68 = load i64, ptr %67, align 8, !tbaa !17
  %69 = load ptr, ptr %4, align 8, !tbaa !11
  %70 = getelementptr inbounds nuw %"struct.cv::ppf_match_3d::HSHTBL_i", ptr %69, i32 0, i32 0
  store i64 %68, ptr %70, align 8, !tbaa !17
  %71 = getelementptr inbounds nuw %"struct.cv::ppf_match_3d::HSHTBL_i", ptr %6, i32 0, i32 1
  %72 = load ptr, ptr %71, align 8, !tbaa !13
  %73 = load ptr, ptr %4, align 8, !tbaa !11
  %74 = getelementptr inbounds nuw %"struct.cv::ppf_match_3d::HSHTBL_i", ptr %73, i32 0, i32 1
  store ptr %72, ptr %74, align 8, !tbaa !13
  store i32 0, ptr %3, align 4
  store i32 1, ptr %10, align 4
  br label %75

75:                                               ; preds = %63, %23
  call void @llvm.lifetime.end.p0(i64 8, ptr %9) #3
  call void @llvm.lifetime.end.p0(i64 8, ptr %8) #3
  call void @llvm.lifetime.end.p0(i64 8, ptr %7) #3
  call void @llvm.lifetime.end.p0(i64 24, ptr %6) #3
  %76 = load i32, ptr %3, align 4
  ret i32 %76
}