; Function Attrs: mustprogress uwtable
define hidden noundef range(i32 -1, 1) i32 @_ZN2cv12ppf_match_3d15hashtableResizeEPNS0_8HSHTBL_iEm(ptr noundef captures(none) %0, i64 noundef %1) local_unnamed_addr #10 {
  %3 = getelementptr inbounds nuw i8, ptr %0, i64 16
  %4 = load ptr, ptr %3, align 8, !tbaa !12
  %5 = tail call noalias ptr @calloc(i64 noundef %1, i64 noundef 8) #18
  %.not = icmp eq ptr %5, null
  br i1 %.not, label %55, label %.preheader

.preheader:                                       ; preds = %2
  %6 = load i64, ptr %0, align 8, !tbaa !11
  %.not37 = icmp eq i64 %6, 0
  br i1 %.not37, label %._crit_edge36, label %.lr.ph35

.lr.ph35:                                         ; preds = %.preheader
  %7 = getelementptr inbounds nuw i8, ptr %0, i64 8
  br label %8

8:                                                ; preds = %.lr.ph35, %._crit_edge
  %9 = phi i64 [ %6, %.lr.ph35 ], [ %50, %._crit_edge ]
  %.01934 = phi i64 [ 0, %.lr.ph35 ], [ %51, %._crit_edge ]
  %10 = load ptr, ptr %7, align 8, !tbaa !3
  %11 = getelementptr inbounds nuw ptr, ptr %10, i64 %.01934
  %12 = load ptr, ptr %11, align 8, !tbaa !13
  %.not2031 = icmp eq ptr %12, null
  br i1 %.not2031, label %._crit_edge, label %.lr.ph33

.lr.ph33:                                         ; preds = %8, %_ZN2cv12ppf_match_3d15hashtableRemoveEPNS0_8HSHTBL_iEj.exit
  %.01832 = phi ptr [ %14, %_ZN2cv12ppf_match_3d15hashtableRemoveEPNS0_8HSHTBL_iEj.exit ], [ %12, %8 ]
  %13 = getelementptr inbounds nuw i8, ptr %.01832, i64 16
  %14 = load ptr, ptr %13, align 8, !tbaa !15
  %15 = load i32, ptr %.01832, align 8, !tbaa !21
  %16 = getelementptr inbounds nuw i8, ptr %.01832, i64 8
  %17 = load ptr, ptr %16, align 8, !tbaa !22
  %18 = tail call noundef i64 %4(i32 noundef %15)
  %19 = urem i64 %18, %1
  %20 = getelementptr inbounds nuw ptr, ptr %5, i64 %19
  %.02227.i = load ptr, ptr %20, align 8, !tbaa !13
  %.not28.i = icmp eq ptr %.02227.i, null
  br i1 %.not28.i, label %._crit_edge.i, label %.lr.ph.i

.lr.ph.i:                                         ; preds = %.lr.ph33, %24
  %.02229.i = phi ptr [ %.022.i, %24 ], [ %.02227.i, %.lr.ph33 ]
  %21 = load i32, ptr %.02229.i, align 8, !tbaa !21
  %.not25.i = icmp eq i32 %21, %15
  br i1 %.not25.i, label %24, label %22

22:                                               ; preds = %.lr.ph.i
  %23 = getelementptr inbounds nuw i8, ptr %.02229.i, i64 8
  store ptr %17, ptr %23, align 8, !tbaa !22
  br label %_ZN2cv12ppf_match_3d15hashtableInsertEPNS0_8HSHTBL_iEjPv.exit

24:                                               ; preds = %.lr.ph.i
  %25 = getelementptr inbounds nuw i8, ptr %.02229.i, i64 16
  %.022.i = load ptr, ptr %25, align 8, !tbaa !13
  %.not.i = icmp eq ptr %.022.i, null
  br i1 %.not.i, label %._crit_edge.i, label %.lr.ph.i, !llvm.loop !23

._crit_edge.i:                                    ; preds = %24, %.lr.ph33
  %26 = tail call noalias dereferenceable_or_null(24) ptr @malloc(i64 noundef 24) #17
  %.not24.i = icmp eq ptr %26, null
  br i1 %.not24.i, label %_ZN2cv12ppf_match_3d15hashtableInsertEPNS0_8HSHTBL_iEjPv.exit, label %27

27:                                               ; preds = %._crit_edge.i
  store i32 %15, ptr %26, align 8, !tbaa !21
  %28 = getelementptr inbounds nuw i8, ptr %26, i64 8
  store ptr %17, ptr %28, align 8, !tbaa !22
  %29 = getelementptr inbounds nuw i8, ptr %26, i64 16
  store ptr %.02227.i, ptr %29, align 8, !tbaa !15
  store ptr %26, ptr %20, align 8, !tbaa !13
  br label %_ZN2cv12ppf_match_3d15hashtableInsertEPNS0_8HSHTBL_iEjPv.exit

_ZN2cv12ppf_match_3d15hashtableInsertEPNS0_8HSHTBL_iEjPv.exit: ; preds = %22, %._crit_edge.i, %27
  %30 = load i32, ptr %.01832, align 8, !tbaa !21
  %31 = load ptr, ptr %3, align 8, !tbaa !12
  %32 = tail call noundef i64 %31(i32 noundef %30)
  %33 = load i64, ptr %0, align 8, !tbaa !11
  %34 = urem i64 %32, %33
  %35 = load ptr, ptr %7, align 8, !tbaa !3
  %36 = getelementptr inbounds nuw ptr, ptr %35, i64 %34
  %.01822.i = load ptr, ptr %36, align 8, !tbaa !13
  %.not23.i = icmp eq ptr %.01822.i, null
  br i1 %.not23.i, label %_ZN2cv12ppf_match_3d15hashtableRemoveEPNS0_8HSHTBL_iEj.exit, label %.lr.ph.i21.preheader

.lr.ph.i21.preheader:                             ; preds = %_ZN2cv12ppf_match_3d15hashtableInsertEPNS0_8HSHTBL_iEjPv.exit
  %37 = load i32, ptr %.01822.i, align 8, !tbaa !21
  %38 = icmp eq i32 %37, %30
  br i1 %38, label %45, label %.lr.ph

.lr.ph.i21:                                       ; preds = %.lr.ph
  %39 = load i32, ptr %.018.i, align 8, !tbaa !21
  %40 = icmp eq i32 %39, %30
  br i1 %40, label %41, label %.lr.ph, !llvm.loop !25

41:                                               ; preds = %.lr.ph.i21
  %42 = getelementptr inbounds nuw i8, ptr %.018.i, i64 16
  %43 = load ptr, ptr %42, align 8, !tbaa !15
  %44 = getelementptr inbounds nuw i8, ptr %.01825.i29, i64 16
  store ptr %43, ptr %44, align 8, !tbaa !15
  br label %48

45:                                               ; preds = %.lr.ph.i21.preheader
  %46 = getelementptr inbounds nuw i8, ptr %.01822.i, i64 16
  %47 = load ptr, ptr %46, align 8, !tbaa !15
  store ptr %47, ptr %36, align 8, !tbaa !13
  br label %48

48:                                               ; preds = %45, %41
  %.01825.i.lcssa44 = phi ptr [ %.01822.i, %45 ], [ %.018.i, %41 ]
  tail call void @free(ptr noundef nonnull %.01825.i.lcssa44) #19
  br label %_ZN2cv12ppf_match_3d15hashtableRemoveEPNS0_8HSHTBL_iEj.exit

.lr.ph:                                           ; preds = %.lr.ph.i21.preheader, %.lr.ph.i21
  %.01825.i29 = phi ptr [ %.018.i, %.lr.ph.i21 ], [ %.01822.i, %.lr.ph.i21.preheader ]
  %49 = getelementptr inbounds nuw i8, ptr %.01825.i29, i64 16
  %.018.i = load ptr, ptr %49, align 8, !tbaa !13
  %.not.i22 = icmp eq ptr %.018.i, null
  br i1 %.not.i22, label %_ZN2cv12ppf_match_3d15hashtableRemoveEPNS0_8HSHTBL_iEj.exit, label %.lr.ph.i21, !llvm.loop !25

_ZN2cv12ppf_match_3d15hashtableRemoveEPNS0_8HSHTBL_iEj.exit: ; preds = %.lr.ph, %_ZN2cv12ppf_match_3d15hashtableInsertEPNS0_8HSHTBL_iEjPv.exit, %48
  %.not20 = icmp eq ptr %14, null
  br i1 %.not20, label %._crit_edge.loopexit, label %.lr.ph33, !llvm.loop !27

._crit_edge.loopexit:                             ; preds = %_ZN2cv12ppf_match_3d15hashtableRemoveEPNS0_8HSHTBL_iEj.exit
  %.pre = load i64, ptr %0, align 8, !tbaa !11
  br label %._crit_edge

._crit_edge:                                      ; preds = %._crit_edge.loopexit, %8
  %50 = phi i64 [ %.pre, %._crit_edge.loopexit ], [ %9, %8 ]
  %51 = add nuw i64 %.01934, 1
  %52 = icmp ult i64 %51, %50
  br i1 %52, label %8, label %._crit_edge36, !llvm.loop !28

._crit_edge36:                                    ; preds = %._crit_edge, %.preheader
  %53 = getelementptr inbounds nuw i8, ptr %0, i64 8
  %54 = load ptr, ptr %53, align 8, !tbaa !3
  tail call void @free(ptr noundef %54) #19
  store i64 %1, ptr %0, align 8, !tbaa !11
  store ptr %5, ptr %53, align 8, !tbaa !3
  br label %55

55:                                               ; preds = %2, %._crit_edge36
  %.0 = phi i32 [ 0, %._crit_edge36 ], [ -1, %2 ]
  ret i32 %.0
}